; Function Attrs: mustprogress nofree norecurse nosync nounwind willreturn memory(argmem: readwrite) uwtable
define hidden void @_ZN3fmt3v117ostreamC2EOS1_(ptr noundef nonnull writeonly align 8 captures(none) dereferenceable(36) initializes((0, 36)) %0, ptr noundef nonnull align 8 captures(none) dereferenceable(36) %1) unnamed_addr #14 align 2 personality ptr @__gxx_personality_v0 {
  %3 = load ptr, ptr %1, align 8, !tbaa !16
  %4 = getelementptr inbounds nuw i8, ptr %1, i64 8
  %5 = load i64, ptr %4, align 8, !tbaa !18
  %6 = getelementptr inbounds nuw i8, ptr %1, i64 16
  %7 = load i64, ptr %6, align 8, !tbaa !17
  store ptr %3, ptr %0, align 8, !tbaa !16
  %8 = getelementptr inbounds nuw i8, ptr %0, i64 8
  store i64 %5, ptr %8, align 8, !tbaa !18
  %9 = getelementptr inbounds nuw i8, ptr %0, i64 16
  store i64 %7, ptr %9, align 8, !tbaa !17
  %10 = getelementptr inbounds nuw i8, ptr %0, i64 24
  store ptr @_ZN3fmt3v117ostream4growERNS0_6detail6bufferIcEEm, ptr %10, align 8, !tbaa !12
  %11 = getelementptr inbounds nuw i8, ptr %0, i64 32
  %12 = getelementptr inbounds nuw i8, ptr %1, i64 32
  %13 = load i32, ptr %12, align 8, !tbaa !34
  store i32 %13, ptr %11, align 8, !tbaa !34
  store i32 -1, ptr %12, align 8, !tbaa !34
  tail call void @llvm.memset.p0.i64(ptr noundef nonnull align 8 dereferenceable(24) %1, i8 0, i64 24, i1 false)
  ret void
}